target datalayout = "e-m:e-p270:32:32-p271:32:32-p272:64:64-i64:64-i128:128-f80:128-n8:16:32:64-S128"
target triple = "x86_64-pc-linux-gnu"

@.str.9 = private unnamed_addr constant [20 x i8] c"XCF_PRECISION_I_8_L\00", align 1
@.str.10 = private unnamed_addr constant [20 x i8] c"XCF_PRECISION_I_8_G\00", align 1
@.str.11 = private unnamed_addr constant [21 x i8] c"XCF_PRECISION_I_16_L\00", align 1
@.str.12 = private unnamed_addr constant [21 x i8] c"XCF_PRECISION_I_16_G\00", align 1
@.str.13 = private unnamed_addr constant [21 x i8] c"XCF_PRECISION_I_32_L\00", align 1
@.str.14 = private unnamed_addr constant [21 x i8] c"XCF_PRECISION_I_32_G\00", align 1
@.str.15 = private unnamed_addr constant [21 x i8] c"XCF_PRECISION_F_16_L\00", align 1
@.str.16 = private unnamed_addr constant [21 x i8] c"XCF_PRECISION_F_16_G\00", align 1
@.str.17 = private unnamed_addr constant [21 x i8] c"XCF_PRECISION_F_32_L\00", align 1
@.str.18 = private unnamed_addr constant [21 x i8] c"XCF_PRECISION_F_32_G\00", align 1
@.str.19 = private unnamed_addr constant [21 x i8] c"XCF_PRECISION_F_64_L\00", align 1
@.str.20 = private unnamed_addr constant [21 x i8] c"XCF_PRECISION_F_64_G\00", align 1

; Function Attrs: nounwind uwtable
define ptr @xcf_get_precision_name(i32 noundef %0) #0 {
  %2 = alloca ptr, align 8
  %3 = alloca i32, align 4
  store i32 %0, ptr %3, align 4, !tbaa !3
  %4 = load i32, ptr %3, align 4, !tbaa !3
  switch i32 %4, label %17 [
    i32 100, label %5
    i32 150, label %6
    i32 200, label %7
    i32 250, label %8
    i32 300, label %9
    i32 350, label %10
    i32 500, label %11
    i32 550, label %12
    i32 600, label %13
    i32 650, label %14
    i32 700, label %15
    i32 750, label %16
  ]

5:                                                ; preds = %1
  store ptr @.str.9, ptr %2, align 8
  br label %18

6:                                                ; preds = %1
  store ptr @.str.10, ptr %2, align 8
  br label %18

7:                                                ; preds = %1
  store ptr @.str.11, ptr %2, align 8
  br label %18

8:                                                ; preds = %1
  store ptr @.str.12, ptr %2, align 8
  br label %18

9:                                                ; preds = %1
  store ptr @.str.13, ptr %2, align 8
  br label %18

10:                                               ; preds = %1
  store ptr @.str.14, ptr %2, align 8
  br label %18

11:                                               ; preds = %1
  store ptr @.str.15, ptr %2, align 8
  br label %18

12:                                               ; preds = %1
  store ptr @.str.16, ptr %2, align 8
  br label %18

13:                                               ; preds = %1
  store ptr @.str.17, ptr %2, align 8
  br label %18

14:                                               ; preds = %1
  store ptr @.str.18, ptr %2, align 8
  br label %18

15:                                               ; preds = %1
  store ptr @.str.19, ptr %2, align 8
  br label %18

16:                                               ; preds = %1
  store ptr @.str.20, ptr %2, align 8
  br label %18

17:                                               ; preds = %1
  store ptr null, ptr %2, align 8
  br label %18

18:                                               ; preds = %17, %16, %15, %14, %13, %12, %11, %10, %9, %8, %7, %6, %5
  %19 = load ptr, ptr %2, align 8
  ret ptr %19
}