; Function Attrs: mustprogress nofree norecurse nosync nounwind willreturn memory(none) uwtable
define noundef ptr @xcf_get_precision_name(i32 noundef %0) local_unnamed_addr #0 {
  switch i32 %0, label %13 [
    i32 100, label %14
    i32 150, label %2
    i32 200, label %3
    i32 250, label %4
    i32 300, label %5
    i32 350, label %6
    i32 500, label %7
    i32 550, label %8
    i32 600, label %9
    i32 650, label %10
    i32 700, label %11
    i32 750, label %12
  ]

2:                                                ; preds = %1
  br label %14

3:                                                ; preds = %1
  br label %14

4:                                                ; preds = %1
  br label %14

5:                                                ; preds = %1
  br label %14

6:                                                ; preds = %1
  br label %14

7:                                                ; preds = %1
  br label %14

8:                                                ; preds = %1
  br label %14

9:                                                ; preds = %1
  br label %14

10:                                               ; preds = %1
  br label %14

11:                                               ; preds = %1
  br label %14

12:                                               ; preds = %1
  br label %14

13:                                               ; preds = %1
  br label %14

14:                                               ; preds = %1, %13, %12, %11, %10, %9, %8, %7, %6, %5, %4, %3, %2
  %.0 = phi ptr [ null, %13 ], [ @.str.20, %12 ], [ @.str.19, %11 ], [ @.str.18, %10 ], [ @.str.17, %9 ], [ @.str.16, %8 ], [ @.str.15, %7 ], [ @.str.14, %6 ], [ @.str.13, %5 ], [ @.str.12, %4 ], [ @.str.11, %3 ], [ @.str.10, %2 ], [ @.str.9, %1 ]
  ret ptr %.0
}